target datalayout = "e-m:e-p270:32:32-p271:32:32-p272:64:64-i64:64-i128:128-f80:128-n8:16:32:64-S128"
target triple = "x86_64-pc-linux-gnu"

; Function Attrs: nounwind uwtable
define ptr @Mio_SopRegister(ptr noundef %0, ptr noundef %1) #0 {
  %3 = alloca ptr, align 8
  %4 = alloca ptr, align 8
  %5 = alloca ptr, align 8
  %6 = alloca ptr, align 8
  %7 = alloca i32, align 4
  store ptr %0, ptr %4, align 8, !tbaa !3
  store ptr %1, ptr %5, align 8, !tbaa !8
  call void @llvm.lifetime.start.p0(i64 8, ptr %6) #10
  %8 = load ptr, ptr %5, align 8, !tbaa !8
  %9 = icmp eq ptr %8, null
  br i1 %9, label %10, label %11

10:                                               ; preds = %2
  store ptr null, ptr %3, align 8
  store i32 1, ptr %7, align 4
  br label %22

11:                                               ; preds = %2
  %12 = load ptr, ptr %4, align 8, !tbaa !3
  %13 = load ptr, ptr %5, align 8, !tbaa !8
  %14 = call i64 @strlen(ptr noundef %13) #11
  %15 = add i64 %14, 1
  %16 = trunc i64 %15 to i32
  %17 = call ptr @Mem_FlexEntryFetch(ptr noundef %12, i32 noundef %16)
  store ptr %17, ptr %6, align 8, !tbaa !8
  %18 = load ptr, ptr %6, align 8, !tbaa !8
  %19 = load ptr, ptr %5, align 8, !tbaa !8
  %20 = call ptr @strcpy(ptr noundef %18, ptr noundef %19) #10
  %21 = load ptr, ptr %6, align 8, !tbaa !8
  store ptr %21, ptr %3, align 8
  store i32 1, ptr %7, align 4
  br label %22

22:                                               ; preds = %11, %10
  call void @llvm.lifetime.end.p0(i64 8, ptr %6) #10
  %23 = load ptr, ptr %3, align 8
  ret ptr %23
}