; Function Attrs: nounwind uwtable
define noundef ptr @Mio_SopRegister(ptr noundef %0, ptr noundef readonly %1) local_unnamed_addr #0 {
  %3 = icmp eq ptr %1, null
  br i1 %3, label %10, label %4

4:                                                ; preds = %2
  %5 = tail call i64 @strlen(ptr noundef nonnull dereferenceable(1) %1) #11
  %6 = trunc i64 %5 to i32
  %7 = add i32 %6, 1
  %8 = tail call ptr @Mem_FlexEntryFetch(ptr noundef %0, i32 noundef %7) #12
  %9 = tail call ptr @strcpy(ptr noundef nonnull dereferenceable(1) %8, ptr noundef nonnull dereferenceable(1) %1) #12
  br label %10

10:                                               ; preds = %2, %4
  %.0 = phi ptr [ %8, %4 ], [ null, %2 ]
  ret ptr %.0
}